; Function Attrs: nounwind uwtable
define noalias nonnull ptr @l_Lake_instEmptyCollectionInputDirConfig(ptr noundef %0) local_unnamed_addr #1 {
  %2 = load ptr, ptr @l_Lake_InputFileConfig_path___proj___elambda__1___closed__1, align 8, !tbaa !4
  %3 = tail call ptr @l_Lean_Name_toString(ptr noundef %0, i8 noundef zeroext 0, ptr noundef %2) #7
  %4 = load ptr, ptr @l_Lake_InputDirConfig_filter___proj___elambda__1___closed__1, align 8, !tbaa !4
  tail call void @lean_inc_heartbeat() #7
  %5 = tail call noalias ptr @mi_malloc_small(i64 noundef 32) #7
  %6 = icmp eq ptr %5, null
  br i1 %6, label %7, label %lean_alloc_ctor.exit

7:                                                ; preds = %1
  tail call void @lean_internal_panic_out_of_memory() #8
  unreachable

lean_alloc_ctor.exit:                             ; preds = %1
  %8 = getelementptr inbounds nuw i8, ptr %5, i64 4
  %9 = getelementptr inbounds nuw i8, ptr %5, i64 24
  store i64 0, ptr %9, align 8, !tbaa !13
  store i32 1, ptr %5, align 4, !tbaa !8
  store i32 131104, ptr %8, align 4
  %10 = getelementptr inbounds nuw i8, ptr %5, i64 8
  store ptr %3, ptr %10, align 8, !tbaa !4
  %11 = getelementptr inbounds nuw i8, ptr %5, i64 16
  store ptr %4, ptr %11, align 8, !tbaa !4
  ret ptr %5
}